; Function Attrs: mustprogress nofree norecurse nosync nounwind willreturn memory(readwrite, inaccessiblemem: none) uwtable
define hidden void @_ZN16java_lang_Thread33dec_VTMS_transition_disable_countEP7oopDesc(ptr noundef %0) local_unnamed_addr #9 align 2 {
  %2 = load i32, ptr @_ZN16java_lang_Thread43_jvmti_VTMS_transition_disable_count_offsetE, align 4
  %3 = ptrtoint ptr %0 to i64
  %4 = sext i32 %2 to i64
  %5 = add nsw i64 %4, %3
  %6 = inttoptr i64 %5 to ptr
  %7 = load i32, ptr %6, align 4
  %8 = add nsw i32 %7, -1
  store i32 %8, ptr %6, align 4
  ret void
}